; Function Attrs: mustprogress uwtable
define void @_ZNK8facebook5velox4core16AbstractJoinNode10addDetailsERNSt7__cxx1118basic_stringstreamIcSt11char_traitsIcESaIcEEE(ptr nocapture noundef nonnull readonly align 8 dereferenceable(152) %this, ptr noundef nonnull align 8 dereferenceable(128) %stream) unnamed_addr #0 align 2 personality ptr @__gxx_personality_v0 {
entry:
  %ref.tmp = alloca %"class.std::__cxx11::basic_string", align 8
  %add.ptr = getelementptr inbounds i8, ptr %stream, i64 16
  %joinType_ = getelementptr inbounds i8, ptr %this, i64 40
  %0 = load i32, ptr %joinType_, align 8
  %call = tail call noundef ptr @_ZN8facebook5velox4core12joinTypeNameENS1_8JoinTypeE(i32 noundef %0)
  %call2 = tail call noundef nonnull align 8 dereferenceable(8) ptr @_ZStlsISt11char_traitsIcEERSt13basic_ostreamIcT_ES5_PKc(ptr noundef nonnull align 8 dereferenceable(8) %add.ptr, ptr noundef %call)
  %call3 = tail call noundef nonnull align 8 dereferenceable(8) ptr @_ZStlsISt11char_traitsIcEERSt13basic_ostreamIcT_ES5_PKc(ptr noundef nonnull align 8 dereferenceable(8) %call2, ptr noundef nonnull @.str.6)
  %leftKeys_ = getelementptr inbounds i8, ptr %this, i64 48
  %_M_finish.i = getelementptr inbounds i8, ptr %this, i64 56
  %1 = load ptr, ptr %_M_finish.i, align 8
  %2 = load ptr, ptr %leftKeys_, align 8
  %cmp14.not = icmp eq ptr %1, %2
  br i1 %cmp14.not, label %for.end, label %for.body.lr.ph

for.body.lr.ph:                                   ; preds = %entry
  %rightKeys_ = getelementptr inbounds i8, ptr %this, i64 72
  br label %for.body

for.body:                                         ; preds = %for.body.lr.ph, %if.end
  %3 = phi ptr [ %2, %for.body.lr.ph ], [ %9, %if.end ]
  %indvars.iv = phi i64 [ 0, %for.body.lr.ph ], [ %indvars.iv.next, %if.end ]
  %cmp5.not = icmp eq i64 %indvars.iv, 0
  br i1 %cmp5.not, label %if.end, label %if.then

if.then:                                          ; preds = %for.body
  %call7 = tail call noundef nonnull align 8 dereferenceable(8) ptr @_ZStlsISt11char_traitsIcEERSt13basic_ostreamIcT_ES5_PKc(ptr noundef nonnull align 8 dereferenceable(8) %add.ptr, ptr noundef nonnull @.str.62)
  %.pre = load ptr, ptr %leftKeys_, align 8
  br label %if.end

if.end:                                           ; preds = %if.then, %for.body
  %4 = phi ptr [ %.pre, %if.then ], [ %3, %for.body ]
  %add.ptr.i = getelementptr inbounds %"class.std::shared_ptr.24", ptr %4, i64 %indvars.iv
  %5 = load ptr, ptr %add.ptr.i, align 8
  %name_.i = getelementptr inbounds i8, ptr %5, i64 48
  %call14 = tail call noundef nonnull align 8 dereferenceable(8) ptr @_ZStlsIcSt11char_traitsIcESaIcEERSt13basic_ostreamIT_T0_ES7_RKNSt7__cxx1112basic_stringIS4_S5_T1_EE(ptr noundef nonnull align 8 dereferenceable(8) %add.ptr, ptr noundef nonnull align 8 dereferenceable(32) %name_.i)
  %call15 = tail call noundef nonnull align 8 dereferenceable(8) ptr @_ZStlsISt11char_traitsIcEERSt13basic_ostreamIcT_ES5_PKc(ptr noundef nonnull align 8 dereferenceable(8) %call14, ptr noundef nonnull @.str.63)
  %6 = load ptr, ptr %rightKeys_, align 8
  %add.ptr.i8 = getelementptr inbounds %"class.std::shared_ptr.24", ptr %6, i64 %indvars.iv
  %7 = load ptr, ptr %add.ptr.i8, align 8
  %name_.i9 = getelementptr inbounds i8, ptr %7, i64 48
  %call20 = tail call noundef nonnull align 8 dereferenceable(8) ptr @_ZStlsIcSt11char_traitsIcESaIcEERSt13basic_ostreamIT_T0_ES7_RKNSt7__cxx1112basic_stringIS4_S5_T1_EE(ptr noundef nonnull align 8 dereferenceable(8) %call15, ptr noundef nonnull align 8 dereferenceable(32) %name_.i9)
  %indvars.iv.next = add nuw i64 %indvars.iv, 1
  %8 = load ptr, ptr %_M_finish.i, align 8
  %9 = load ptr, ptr %leftKeys_, align 8
  %sub.ptr.lhs.cast.i = ptrtoint ptr %8 to i64
  %sub.ptr.rhs.cast.i = ptrtoint ptr %9 to i64
  %sub.ptr.sub.i = sub i64 %sub.ptr.lhs.cast.i, %sub.ptr.rhs.cast.i
  %sub.ptr.div.i = ashr exact i64 %sub.ptr.sub.i, 4
  %cmp = icmp ugt i64 %sub.ptr.div.i, %indvars.iv.next
  br i1 %cmp, label %for.body, label %for.end, !llvm.loop !198

for.end:                                          ; preds = %if.end, %entry
  %filter_ = getelementptr inbounds i8, ptr %this, i64 96
  %10 = load ptr, ptr %filter_, align 8
  %cmp.i.not = icmp eq ptr %10, null
  br i1 %cmp.i.not, label %if.end28, label %if.then22

if.then22:                                        ; preds = %for.end
  %call24 = tail call noundef nonnull align 8 dereferenceable(8) ptr @_ZStlsISt11char_traitsIcEERSt13basic_ostreamIcT_ES5_PKc(ptr noundef nonnull align 8 dereferenceable(8) %add.ptr, ptr noundef nonnull @.str.64)
  %11 = load ptr, ptr %filter_, align 8
  %vtable = load ptr, ptr %11, align 8
  %vfn = getelementptr inbounds i8, ptr %vtable, i64 32
  %12 = load ptr, ptr %vfn, align 8
  call void %12(ptr nonnull sret(%"class.std::__cxx11::basic_string") align 8 %ref.tmp, ptr noundef nonnull align 8 dereferenceable(48) %11)
  %call27 = invoke noundef nonnull align 8 dereferenceable(8) ptr @_ZStlsIcSt11char_traitsIcESaIcEERSt13basic_ostreamIT_T0_ES7_RKNSt7__cxx1112basic_stringIS4_S5_T1_EE(ptr noundef nonnull align 8 dereferenceable(8) %call24, ptr noundef nonnull align 8 dereferenceable(32) %ref.tmp)
          to label %invoke.cont unwind label %lpad

invoke.cont:                                      ; preds = %if.then22
  call void @_ZNSt7__cxx1112basic_stringIcSt11char_traitsIcESaIcEED1Ev(ptr noundef nonnull align 8 dereferenceable(32) %ref.tmp) #30
  br label %if.end28

lpad:                                             ; preds = %if.then22
  %13 = landingpad { ptr, i32 }
          cleanup
  call void @_ZNSt7__cxx1112basic_stringIcSt11char_traitsIcESaIcEED1Ev(ptr noundef nonnull align 8 dereferenceable(32) %ref.tmp) #30
  resume { ptr, i32 } %13

if.end28:                                         ; preds = %invoke.cont, %for.end
  ret void
}